target datalayout = "e-m:e-p270:32:32-p271:32:32-p272:64:64-i64:64-i128:128-f80:128-n8:16:32:64-S128"
target triple = "x86_64-pc-linux-gnu"

@ff_wp_log2_table = external constant [256 x i8], align 16

; Function Attrs: alwaysinline nounwind willreturn memory(none) uwtable
define internal i32 @ff_clz_c(i32 noundef %0) #10 {
  %2 = alloca i32, align 4
  %3 = alloca i32, align 4
  store i32 %0, ptr %2, align 4, !tbaa !39
  call void @llvm.lifetime.start.p0(i64 4, ptr %3) #11
  store i32 32, ptr %3, align 4, !tbaa !39
  br label %4

4:                                                ; preds = %7, %1
  %5 = load i32, ptr %2, align 4, !tbaa !39
  %6 = icmp ne i32 %5, 0
  br i1 %6, label %7, label %12

7:                                                ; preds = %4
  %8 = load i32, ptr %2, align 4, !tbaa !39
  %9 = lshr i32 %8, 1
  store i32 %9, ptr %2, align 4, !tbaa !39
  %10 = load i32, ptr %3, align 4, !tbaa !39
  %11 = add i32 %10, -1
  store i32 %11, ptr %3, align 4, !tbaa !39
  br label %4, !llvm.loop !233

12:                                               ; preds = %4
  %13 = load i32, ptr %3, align 4, !tbaa !39
  call void @llvm.lifetime.end.p0(i64 4, ptr %3) #11
  ret i32 %13
}

; Function Attrs: nounwind uwtable
define internal i32 @log2sample(i32 noundef %0, i32 noundef %1, ptr noundef %2) #1 {
  %4 = alloca i32, align 4
  %5 = alloca i32, align 4
  %6 = alloca i32, align 4
  %7 = alloca ptr, align 8
  %8 = alloca i32, align 4
  %9 = alloca i32, align 4
  store i32 %0, ptr %5, align 4, !tbaa !39
  store i32 %1, ptr %6, align 4, !tbaa !39
  store ptr %2, ptr %7, align 8, !tbaa !58
  call void @llvm.lifetime.start.p0(i64 4, ptr %8) #11
  %10 = load i32, ptr %5, align 4, !tbaa !39
  %11 = icmp ne i32 %10, 0
  br i1 %11, label %12, label %16

12:                                               ; preds = %3
  %13 = load i32, ptr %5, align 4, !tbaa !39
  %14 = call i32 @ff_clz_c(i32 noundef %13) #13
  %15 = sub i32 32, %14
  br label %17

16:                                               ; preds = %3
  br label %17

17:                                               ; preds = %16, %12
  %18 = phi i32 [ %15, %12 ], [ 0, %16 ]
  store i32 %18, ptr %8, align 4, !tbaa !39
  %19 = load i32, ptr %5, align 4, !tbaa !39
  %20 = lshr i32 %19, 9
  %21 = load i32, ptr %5, align 4, !tbaa !39
  %22 = add i32 %21, %20
  store i32 %22, ptr %5, align 4, !tbaa !39
  %23 = icmp ult i32 %22, 256
  br i1 %23, label %24, label %40

24:                                               ; preds = %17
  %25 = load i32, ptr %8, align 4, !tbaa !39
  %26 = shl i32 %25, 8
  %27 = load i32, ptr %5, align 4, !tbaa !39
  %28 = load i32, ptr %8, align 4, !tbaa !39
  %29 = sub i32 9, %28
  %30 = shl i32 %27, %29
  %31 = and i32 %30, 255
  %32 = zext i32 %31 to i64
  %33 = getelementptr inbounds nuw [256 x i8], ptr @ff_wp_log2_table, i64 0, i64 %32
  %34 = load i8, ptr %33, align 1, !tbaa !83
  %35 = zext i8 %34 to i32
  %36 = add i32 %26, %35
  %37 = load ptr, ptr %7, align 8, !tbaa !58
  %38 = load i32, ptr %37, align 4, !tbaa !39
  %39 = add i32 %38, %36
  store i32 %39, ptr %37, align 4, !tbaa !39
  br label %64

40:                                               ; preds = %17
  %41 = load i32, ptr %8, align 4, !tbaa !39
  %42 = shl i32 %41, 8
  %43 = load i32, ptr %5, align 4, !tbaa !39
  %44 = load i32, ptr %8, align 4, !tbaa !39
  %45 = sub i32 %44, 9
  %46 = lshr i32 %43, %45
  %47 = and i32 %46, 255
  %48 = zext i32 %47 to i64
  %49 = getelementptr inbounds nuw [256 x i8], ptr @ff_wp_log2_table, i64 0, i64 %48
  %50 = load i8, ptr %49, align 1, !tbaa !83
  %51 = zext i8 %50 to i32
  %52 = add i32 %42, %51
  store i32 %52, ptr %8, align 4, !tbaa !39
  %53 = load ptr, ptr %7, align 8, !tbaa !58
  %54 = load i32, ptr %53, align 4, !tbaa !39
  %55 = add i32 %54, %52
  store i32 %55, ptr %53, align 4, !tbaa !39
  %56 = load i32, ptr %6, align 4, !tbaa !39
  %57 = icmp ne i32 %56, 0
  br i1 %57, label %58, label %63

58:                                               ; preds = %40
  %59 = load i32, ptr %8, align 4, !tbaa !39
  %60 = load i32, ptr %6, align 4, !tbaa !39
  %61 = icmp uge i32 %59, %60
  br i1 %61, label %62, label %63

62:                                               ; preds = %58
  store i32 1, ptr %4, align 4
  store i32 1, ptr %9, align 4
  br label %65

63:                                               ; preds = %58, %40
  br label %64

64:                                               ; preds = %63, %24
  store i32 0, ptr %4, align 4
  store i32 1, ptr %9, align 4
  br label %65

65:                                               ; preds = %64, %62
  call void @llvm.lifetime.end.p0(i64 4, ptr %8) #11
  %66 = load i32, ptr %4, align 4
  ret i32 %66
}

; Function Attrs: nounwind uwtable
define internal i32 @log2stereo(ptr noundef %0, ptr noundef %1, i32 noundef %2, i32 noundef %3) #1 {
  %5 = alloca i32, align 4
  %6 = alloca ptr, align 8
  %7 = alloca ptr, align 8
  %8 = alloca i32, align 4
  %9 = alloca i32, align 4
  %10 = alloca i32, align 4
  %11 = alloca i32, align 4
  store ptr %0, ptr %6, align 8, !tbaa !58
  store ptr %1, ptr %7, align 8, !tbaa !58
  store i32 %2, ptr %8, align 4, !tbaa !39
  store i32 %3, ptr %9, align 4, !tbaa !39
  call void @llvm.lifetime.start.p0(i64 4, ptr %10) #11
  store i32 0, ptr %10, align 4, !tbaa !39
  br label %12

12:                                               ; preds = %33, %4
  %13 = load i32, ptr %8, align 4, !tbaa !39
  %14 = add nsw i32 %13, -1
  store i32 %14, ptr %8, align 4, !tbaa !39
  %15 = icmp ne i32 %13, 0
  br i1 %15, label %16, label %34

16:                                               ; preds = %12
  %17 = load ptr, ptr %6, align 8, !tbaa !58
  %18 = getelementptr inbounds nuw i32, ptr %17, i32 1
  store ptr %18, ptr %6, align 8, !tbaa !58
  %19 = load i32, ptr %17, align 4, !tbaa !39
  %20 = call i32 @llvm.abs.i32(i32 %19, i1 true)
  %21 = load i32, ptr %9, align 4, !tbaa !39
  %22 = call i32 @log2sample(i32 noundef %20, i32 noundef %21, ptr noundef %10)
  %23 = icmp ne i32 %22, 0
  br i1 %23, label %32, label %24

24:                                               ; preds = %16
  %25 = load ptr, ptr %7, align 8, !tbaa !58
  %26 = getelementptr inbounds nuw i32, ptr %25, i32 1
  store ptr %26, ptr %7, align 8, !tbaa !58
  %27 = load i32, ptr %25, align 4, !tbaa !39
  %28 = call i32 @llvm.abs.i32(i32 %27, i1 true)
  %29 = load i32, ptr %9, align 4, !tbaa !39
  %30 = call i32 @log2sample(i32 noundef %28, i32 noundef %29, ptr noundef %10)
  %31 = icmp ne i32 %30, 0
  br i1 %31, label %32, label %33

32:                                               ; preds = %24, %16
  store i32 -1, ptr %5, align 4
  store i32 1, ptr %11, align 4
  br label %36

33:                                               ; preds = %24
  br label %12, !llvm.loop !268

34:                                               ; preds = %12
  %35 = load i32, ptr %10, align 4, !tbaa !39
  store i32 %35, ptr %5, align 4
  store i32 1, ptr %11, align 4
  br label %36

36:                                               ; preds = %34, %32
  call void @llvm.lifetime.end.p0(i64 4, ptr %10) #11
  %37 = load i32, ptr %5, align 4
  ret i32 %37
}