; Function Attrs: nofree norecurse nosync nounwind memory(argmem: read) uwtable
define internal fastcc i32 @log2stereo(ptr noundef readonly captures(none) %0, ptr noundef readonly captures(none) %1, i32 noundef %2, i32 noundef %3) unnamed_addr #13 {
  %.not28 = icmp eq i32 %2, 0
  br i1 %.not28, label %log2sample.exit, label %.lr.ph

.lr.ph:                                           ; preds = %4
  %5 = add i32 %3, -1
  br label %6

6:                                                ; preds = %.lr.ph, %log2sample.exit14
  %.in = phi i32 [ %2, %.lr.ph ], [ %7, %log2sample.exit14 ]
  %.0631 = phi ptr [ %1, %.lr.ph ], [ %40, %log2sample.exit14 ]
  %.0730 = phi ptr [ %0, %.lr.ph ], [ %39, %log2sample.exit14 ]
  %.01929 = phi i32 [ 0, %.lr.ph ], [ %.4, %log2sample.exit14 ]
  %7 = add nsw i32 %.in, -1
  %8 = load i32, ptr %.0730, align 4, !tbaa !58
  %9 = tail call i32 @llvm.abs.i32(i32 %8, i1 true)
  %.not.i = icmp eq i32 %8, 0
  br i1 %.not.i, label %13, label %.preheader.preheader.i

.preheader.preheader.i:                           ; preds = %6
  %10 = lshr i32 %9, 1
  %11 = tail call range(i32 2, 33) i32 @llvm.ctlz.i32(i32 %10, i1 false)
  %12 = sub nuw nsw i32 33, %11
  br label %13

13:                                               ; preds = %.preheader.preheader.i, %6
  %14 = phi i32 [ %12, %.preheader.preheader.i ], [ 0, %6 ]
  %15 = lshr i32 %9, 9
  %16 = add nuw i32 %15, %9
  %17 = icmp ult i32 %16, 256
  %18 = shl nuw nsw i32 %14, 8
  br i1 %17, label %19, label %28

19:                                               ; preds = %13
  %20 = sub nsw i32 9, %14
  %21 = shl i32 %9, %20
  %22 = and i32 %21, 255
  %23 = zext nneg i32 %22 to i64
  %24 = getelementptr inbounds nuw [256 x i8], ptr @ff_wp_log2_table, i64 0, i64 %23
  %25 = load i8, ptr %24, align 1, !tbaa !65
  %26 = zext i8 %25 to i32
  %27 = or disjoint i32 %18, %26
  br label %38

28:                                               ; preds = %13
  %29 = add nsw i32 %14, -9
  %30 = lshr i32 %16, %29
  %31 = and i32 %30, 255
  %32 = zext nneg i32 %31 to i64
  %33 = getelementptr inbounds nuw [256 x i8], ptr @ff_wp_log2_table, i64 0, i64 %32
  %34 = load i8, ptr %33, align 1, !tbaa !65
  %35 = zext i8 %34 to i32
  %36 = or disjoint i32 %18, %35
  %37 = freeze i32 %36
  %or.cond.not.i = icmp ult i32 %5, %37
  br i1 %or.cond.not.i, label %log2sample.exit, label %38

38:                                               ; preds = %28, %19
  %.pn = phi i32 [ %27, %19 ], [ %37, %28 ]
  %.2.ph = add i32 %.pn, %.01929
  %39 = getelementptr inbounds nuw i8, ptr %.0730, i64 4
  %40 = getelementptr inbounds nuw i8, ptr %.0631, i64 4
  %41 = load i32, ptr %.0631, align 4, !tbaa !58
  %42 = tail call i32 @llvm.abs.i32(i32 %41, i1 true)
  %.not.i10 = icmp eq i32 %41, 0
  br i1 %.not.i10, label %46, label %.preheader.preheader.i11

.preheader.preheader.i11:                         ; preds = %38
  %43 = lshr i32 %42, 1
  %44 = tail call range(i32 2, 33) i32 @llvm.ctlz.i32(i32 %43, i1 false)
  %45 = sub nuw nsw i32 33, %44
  br label %46

46:                                               ; preds = %.preheader.preheader.i11, %38
  %47 = phi i32 [ %45, %.preheader.preheader.i11 ], [ 0, %38 ]
  %48 = lshr i32 %42, 9
  %49 = add nuw i32 %48, %42
  %50 = icmp ult i32 %49, 256
  %51 = shl nuw nsw i32 %47, 8
  br i1 %50, label %52, label %61

52:                                               ; preds = %46
  %53 = sub nsw i32 9, %47
  %54 = shl i32 %42, %53
  %55 = and i32 %54, 255
  %56 = zext nneg i32 %55 to i64
  %57 = getelementptr inbounds nuw [256 x i8], ptr @ff_wp_log2_table, i64 0, i64 %56
  %58 = load i8, ptr %57, align 1, !tbaa !65
  %59 = zext i8 %58 to i32
  %60 = or disjoint i32 %51, %59
  br label %log2sample.exit14

61:                                               ; preds = %46
  %62 = add nsw i32 %47, -9
  %63 = lshr i32 %49, %62
  %64 = and i32 %63, 255
  %65 = zext nneg i32 %64 to i64
  %66 = getelementptr inbounds nuw [256 x i8], ptr @ff_wp_log2_table, i64 0, i64 %65
  %67 = load i8, ptr %66, align 1, !tbaa !65
  %68 = zext i8 %67 to i32
  %69 = or disjoint i32 %51, %68
  %70 = freeze i32 %69
  %or.cond.not.i12 = icmp ult i32 %5, %70
  br i1 %or.cond.not.i12, label %log2sample.exit, label %log2sample.exit14

log2sample.exit14:                                ; preds = %61, %52
  %.pn27 = phi i32 [ %60, %52 ], [ %70, %61 ]
  %.4 = add i32 %.2.ph, %.pn27
  %.not = icmp eq i32 %7, 0
  br i1 %.not, label %log2sample.exit, label %6, !llvm.loop !200

log2sample.exit:                                  ; preds = %28, %log2sample.exit14, %61, %4
  %.0 = phi i32 [ 0, %4 ], [ -1, %61 ], [ %.4, %log2sample.exit14 ], [ -1, %28 ]
  ret i32 %.0
}